; ModuleID = '24/1604.c'
source_filename = "24/1604.c"
target datalayout = "e-m:e-p270:32:32-p271:32:32-p272:64:64-i64:64-f80:128-n8:16:32:64-S128"
target triple = "x86_64-pc-linux-gnu"

@.str = private unnamed_addr constant [4 x i8] c"%s\0A\00", align 1

; Function Attrs: noinline nounwind uwtable
define dso_local i32 @main() #0 {
  %1 = alloca i32, align 4
  %2 = alloca [2000 x i8], align 16
  %3 = alloca i32, align 4
  %4 = alloca i32, align 4
  %5 = alloca [200 x i32], align 16
  %6 = alloca i32, align 4
  %7 = alloca i32, align 4
  %8 = alloca i32, align 4
  %9 = alloca i32, align 4
  %10 = alloca i32, align 4
  store i32 0, i32* %1, align 4
  store i32 1, i32* %6, align 4
  store i32 0, i32* %8, align 4
  store i32 0, i32* %10, align 4
  %11 = getelementptr inbounds [2000 x i8], [2000 x i8]* %2, i64 0, i64 0
  %12 = call i32 (i8*, ...) bitcast (i32 (...)* @gets to i32 (i8*, ...)*)(i8* %11)
  %13 = getelementptr inbounds [2000 x i8], [2000 x i8]* %2, i64 0, i64 0
  %14 = call i64 @strlen(i8* %13) #3
  %15 = trunc i64 %14 to i32
  store i32 %15, i32* %4, align 4
  store i32 0, i32* %3, align 4
  br label %16

16:                                               ; preds = %62, %0
  %17 = load i32, i32* %3, align 4
  %18 = load i32, i32* %4, align 4
  %19 = icmp slt i32 %17, %18
  br i1 %19, label %20, label %65

20:                                               ; preds = %16
  %21 = load i32, i32* %3, align 4
  %22 = sext i32 %21 to i64
  %23 = getelementptr inbounds [2000 x i8], [2000 x i8]* %2, i64 0, i64 %22
  %24 = load i8, i8* %23, align 1
  %25 = sext i8 %24 to i32
  %26 = icmp eq i32 %25, 32
  br i1 %26, label %34, label %27

27:                                               ; preds = %20
  %28 = load i32, i32* %3, align 4
  %29 = sext i32 %28 to i64
  %30 = getelementptr inbounds [2000 x i8], [2000 x i8]* %2, i64 0, i64 %29
  %31 = load i8, i8* %30, align 1
  %32 = sext i8 %31 to i32
  %33 = icmp eq i32 %32, 44
  br i1 %33, label %34, label %61

34:                                               ; preds = %27, %20
  %35 = load i32, i32* %3, align 4
  %36 = add nsw i32 %35, 1
  %37 = sext i32 %36 to i64
  %38 = getelementptr inbounds [2000 x i8], [2000 x i8]* %2, i64 0, i64 %37
  %39 = load i8, i8* %38, align 1
  %40 = sext i8 %39 to i32
  %41 = icmp ne i32 %40, 32
  br i1 %41, label %42, label %61

42:                                               ; preds = %34
  %43 = load i32, i32* %3, align 4
  %44 = add nsw i32 %43, 1
  %45 = sext i32 %44 to i64
  %46 = getelementptr inbounds [2000 x i8], [2000 x i8]* %2, i64 0, i64 %45
  %47 = load i8, i8* %46, align 1
  %48 = sext i8 %47 to i32
  %49 = icmp ne i32 %48, 44
  br i1 %49, label %50, label %61

50:                                               ; preds = %42
  %51 = load i32, i32* %3, align 4
  %52 = add nsw i32 %51, 1
  %53 = load i32, i32* %6, align 4
  %54 = sext i32 %53 to i64
  %55 = getelementptr inbounds [200 x i32], [200 x i32]* %5, i64 0, i64 %54
  store i32 %52, i32* %55, align 4
  %56 = load i32, i32* %6, align 4
  %57 = add nsw i32 %56, 1
  store i32 %57, i32* %6, align 4
  %58 = load i32, i32* %3, align 4
  %59 = sext i32 %58 to i64
  %60 = getelementptr inbounds [2000 x i8], [2000 x i8]* %2, i64 0, i64 %59
  store i8 0, i8* %60, align 1
  br label %61

61:                                               ; preds = %50, %42, %34, %27
  br label %62

62:                                               ; preds = %61
  %63 = load i32, i32* %3, align 4
  %64 = add nsw i32 %63, 1
  store i32 %64, i32* %3, align 4
  br label %16

65:                                               ; preds = %16
  %66 = load i32, i32* %4, align 4
  %67 = add nsw i32 %66, 1
  %68 = load i32, i32* %6, align 4
  %69 = sext i32 %68 to i64
  %70 = getelementptr inbounds [200 x i32], [200 x i32]* %5, i64 0, i64 %69
  store i32 %67, i32* %70, align 4
  %71 = getelementptr inbounds [200 x i32], [200 x i32]* %5, i64 0, i64 1
  %72 = load i32, i32* %71, align 4
  %73 = sub nsw i32 %72, 1
  store i32 %73, i32* %7, align 4
  %74 = getelementptr inbounds [200 x i32], [200 x i32]* %5, i64 0, i64 1
  %75 = load i32, i32* %74, align 4
  %76 = sub nsw i32 %75, 1
  store i32 %76, i32* %9, align 4
  store i32 1, i32* %3, align 4
  br label %77

77:                                               ; preds = %143, %65
  %78 = load i32, i32* %3, align 4
  %79 = load i32, i32* %6, align 4
  %80 = icmp slt i32 %78, %79
  br i1 %80, label %81, label %146

81:                                               ; preds = %77
  %82 = load i32, i32* %3, align 4
  %83 = add nsw i32 %82, 1
  %84 = sext i32 %83 to i64
  %85 = getelementptr inbounds [200 x i32], [200 x i32]* %5, i64 0, i64 %84
  %86 = load i32, i32* %85, align 4
  %87 = load i32, i32* %3, align 4
  %88 = sext i32 %87 to i64
  %89 = getelementptr inbounds [200 x i32], [200 x i32]* %5, i64 0, i64 %88
  %90 = load i32, i32* %89, align 4
  %91 = sub nsw i32 %86, %90
  %92 = sub nsw i32 %91, 1
  %93 = load i32, i32* %7, align 4
  %94 = icmp sgt i32 %92, %93
  br i1 %94, label %95, label %111

95:                                               ; preds = %81
  %96 = load i32, i32* %3, align 4
  %97 = add nsw i32 %96, 1
  %98 = sext i32 %97 to i64
  %99 = getelementptr inbounds [200 x i32], [200 x i32]* %5, i64 0, i64 %98
  %100 = load i32, i32* %99, align 4
  %101 = load i32, i32* %3, align 4
  %102 = sext i32 %101 to i64
  %103 = getelementptr inbounds [200 x i32], [200 x i32]* %5, i64 0, i64 %102
  %104 = load i32, i32* %103, align 4
  %105 = sub nsw i32 %100, %104
  %106 = sub nsw i32 %105, 1
  store i32 %106, i32* %7, align 4
  %107 = load i32, i32* %3, align 4
  %108 = sext i32 %107 to i64
  %109 = getelementptr inbounds [200 x i32], [200 x i32]* %5, i64 0, i64 %108
  %110 = load i32, i32* %109, align 4
  store i32 %110, i32* %8, align 4
  br label %142

111:                                              ; preds = %81
  %112 = load i32, i32* %3, align 4
  %113 = add nsw i32 %112, 1
  %114 = sext i32 %113 to i64
  %115 = getelementptr inbounds [200 x i32], [200 x i32]* %5, i64 0, i64 %114
  %116 = load i32, i32* %115, align 4
  %117 = load i32, i32* %3, align 4
  %118 = sext i32 %117 to i64
  %119 = getelementptr inbounds [200 x i32], [200 x i32]* %5, i64 0, i64 %118
  %120 = load i32, i32* %119, align 4
  %121 = sub nsw i32 %116, %120
  %122 = sub nsw i32 %121, 1
  %123 = load i32, i32* %9, align 4
  %124 = icmp slt i32 %122, %123
  br i1 %124, label %125, label %141

125:                                              ; preds = %111
  %126 = load i32, i32* %3, align 4
  %127 = add nsw i32 %126, 1
  %128 = sext i32 %127 to i64
  %129 = getelementptr inbounds [200 x i32], [200 x i32]* %5, i64 0, i64 %128
  %130 = load i32, i32* %129, align 4
  %131 = load i32, i32* %3, align 4
  %132 = sext i32 %131 to i64
  %133 = getelementptr inbounds [200 x i32], [200 x i32]* %5, i64 0, i64 %132
  %134 = load i32, i32* %133, align 4
  %135 = sub nsw i32 %130, %134
  %136 = sub nsw i32 %135, 1
  store i32 %136, i32* %9, align 4
  %137 = load i32, i32* %3, align 4
  %138 = sext i32 %137 to i64
  %139 = getelementptr inbounds [200 x i32], [200 x i32]* %5, i64 0, i64 %138
  %140 = load i32, i32* %139, align 4
  store i32 %140, i32* %10, align 4
  br label %141

141:                                              ; preds = %125, %111
  br label %142

142:                                              ; preds = %141, %95
  br label %143

143:                                              ; preds = %142
  %144 = load i32, i32* %3, align 4
  %145 = add nsw i32 %144, 1
  store i32 %145, i32* %3, align 4
  br label %77

146:                                              ; preds = %77
  %147 = load i32, i32* %8, align 4
  %148 = sext i32 %147 to i64
  %149 = getelementptr inbounds [2000 x i8], [2000 x i8]* %2, i64 0, i64 %148
  %150 = call i32 (i8*, ...) @printf(i8* getelementptr inbounds ([4 x i8], [4 x i8]* @.str, i64 0, i64 0), i8* %149)
  %151 = load i32, i32* %10, align 4
  %152 = sext i32 %151 to i64
  %153 = getelementptr inbounds [2000 x i8], [2000 x i8]* %2, i64 0, i64 %152
  %154 = call i32 (i8*, ...) @printf(i8* getelementptr inbounds ([4 x i8], [4 x i8]* @.str, i64 0, i64 0), i8* %153)
  ret i32 0
}

declare dso_local i32 @gets(...) #1

; Function Attrs: nounwind readonly
declare dso_local i64 @strlen(i8*) #2

declare dso_local i32 @printf(i8*, ...) #1


!llvm.module.flags = !{!0}
!llvm.ident = !{!1}

!0 = !{i32 1, !"wchar_size", i32 4}
!1 = !{!"clang version 10.0.0-4ubuntu1 "}
